; Function Attrs: mustprogress uwtable
define internal void @_ZN2cvL7DCT_32fERKNS_13OcvDftOptionsEPKfmPfS5_S5_mPKNS_7ComplexIfEE(ptr noundef nonnull readonly align 8 captures(none) dereferenceable(65) %0, ptr noundef readonly captures(none) %1, i64 noundef %2, ptr noundef %3, ptr noundef %4, ptr noundef writeonly captures(none) %5, i64 noundef %6, ptr noundef readonly captures(none) %7) #0 {
  %9 = getelementptr inbounds nuw i8, ptr %0, i64 44
  %10 = load i32, ptr %9, align 4, !tbaa !213
  %11 = ashr i32 %10, 1
  %12 = lshr i64 %2, 2
  %13 = lshr i64 %6, 2
  %14 = add nsw i32 %10, -1
  %15 = sext i32 %14 to i64
  %16 = mul i64 %13, %15
  %17 = getelementptr inbounds nuw float, ptr %5, i64 %16
  %18 = icmp eq i32 %10, 1
  br i1 %18, label %20, label %.preheader.i

.preheader.i:                                     ; preds = %8
  %19 = icmp sgt i32 %11, 0
  br i1 %19, label %.lr.ph.i, label %._crit_edge.i

.lr.ph.i:                                         ; preds = %.preheader.i
  %.idx.i = shl nuw nsw i64 %12, 3
  %wide.trip.count.i = zext nneg i32 %11 to i64
  br label %22

20:                                               ; preds = %8
  %21 = load float, ptr %1, align 4, !tbaa !130
  store float %21, ptr %5, align 4, !tbaa !130
  br label %_ZN2cvL3DCTIfEEvRKNS_13OcvDftOptionsEPKT_mPS4_S7_S7_mPKNS_7ComplexIS4_EE.exit

22:                                               ; preds = %22, %.lr.ph.i
  %indvars.iv.i = phi i64 [ 0, %.lr.ph.i ], [ %indvars.iv.next.i, %22 ]
  %.068.i = phi ptr [ %1, %.lr.ph.i ], [ %32, %22 ]
  %23 = load float, ptr %.068.i, align 4, !tbaa !130
  %24 = getelementptr inbounds nuw float, ptr %3, i64 %indvars.iv.i
  store float %23, ptr %24, align 4, !tbaa !130
  %25 = getelementptr inbounds nuw float, ptr %.068.i, i64 %12
  %26 = load float, ptr %25, align 4, !tbaa !130
  %27 = trunc i64 %indvars.iv.i to i32
  %28 = xor i32 %27, -1
  %29 = add i32 %10, %28
  %30 = sext i32 %29 to i64
  %31 = getelementptr inbounds float, ptr %3, i64 %30
  store float %26, ptr %31, align 4, !tbaa !130
  %indvars.iv.next.i = add nuw nsw i64 %indvars.iv.i, 1
  %32 = getelementptr inbounds nuw i8, ptr %.068.i, i64 %.idx.i
  %exitcond.not.i = icmp eq i64 %indvars.iv.next.i, %wide.trip.count.i
  br i1 %exitcond.not.i, label %._crit_edge.i, label %22, !llvm.loop !322

._crit_edge.i:                                    ; preds = %22, %.preheader.i
  tail call fastcc void @_ZN2cvL7RealDFTIfEEvRKNS_13OcvDftOptionsEPKT_PS4_(ptr noundef nonnull readonly align 8 dereferenceable(65) %0, ptr noundef %3, ptr noundef %4)
  %33 = load float, ptr %4, align 4, !tbaa !130
  %34 = load float, ptr %7, align 4, !tbaa !207
  %35 = fmul float %33, %34
  %36 = fmul float %35, 0x3FE6A09E60000000
  store float %36, ptr %5, align 4, !tbaa !130
  %.06369.i = getelementptr inbounds nuw i8, ptr %7, i64 8
  %.06170.i = getelementptr inbounds nuw float, ptr %5, i64 %13
  %37 = icmp sgt i32 %11, 1
  br i1 %37, label %.lr.ph77.i, label %._crit_edge78.i

.lr.ph77.i:                                       ; preds = %._crit_edge.i
  %38 = sub nsw i64 0, %13
  %wide.trip.count86.i = zext nneg i32 %11 to i64
  br label %39

39:                                               ; preds = %39, %.lr.ph77.i
  %indvars.iv83.i = phi i64 [ 1, %.lr.ph77.i ], [ %indvars.iv.next84.i, %39 ]
  %.06175.i = phi ptr [ %.06170.i, %.lr.ph77.i ], [ %.061.i, %39 ]
  %.06374.i = phi ptr [ %.06369.i, %.lr.ph77.i ], [ %.063.i, %39 ]
  %.06073.i = phi ptr [ %17, %.lr.ph77.i ], [ %53, %39 ]
  %.pn6671.i = phi ptr [ %7, %.lr.ph77.i ], [ %.06374.i, %39 ]
  %40 = load float, ptr %.06374.i, align 4, !tbaa !207
  %.idx88.i = shl i64 %indvars.iv83.i, 3
  %41 = getelementptr i8, ptr %4, i64 %.idx88.i
  %42 = getelementptr i8, ptr %41, i64 -4
  %43 = load float, ptr %42, align 4, !tbaa !130
  %44 = getelementptr inbounds nuw i8, ptr %.pn6671.i, i64 12
  %45 = load float, ptr %44, align 4, !tbaa !209
  %46 = load float, ptr %41, align 4, !tbaa !130
  %47 = fneg float %46
  %48 = fmul float %45, %47
  %49 = tail call float @llvm.fmuladd.f32(float %40, float %43, float %48)
  %50 = fneg float %45
  %51 = fmul float %40, %47
  %52 = tail call float @llvm.fmuladd.f32(float %50, float %43, float %51)
  store float %49, ptr %.06175.i, align 4, !tbaa !130
  store float %52, ptr %.06073.i, align 4, !tbaa !130
  %indvars.iv.next84.i = add nuw nsw i64 %indvars.iv83.i, 1
  %53 = getelementptr inbounds float, ptr %.06073.i, i64 %38
  %.063.i = getelementptr inbounds nuw i8, ptr %.06374.i, i64 8
  %.061.i = getelementptr inbounds nuw float, ptr %.06175.i, i64 %13
  %exitcond87.not.i = icmp eq i64 %indvars.iv.next84.i, %wide.trip.count86.i
  br i1 %exitcond87.not.i, label %._crit_edge78.i, label %39, !llvm.loop !323

._crit_edge78.i:                                  ; preds = %39, %._crit_edge.i
  %.063.lcssa.i = phi ptr [ %.06369.i, %._crit_edge.i ], [ %.063.i, %39 ]
  %.061.lcssa.i = phi ptr [ %.06170.i, %._crit_edge.i ], [ %.061.i, %39 ]
  %54 = getelementptr inbounds float, ptr %4, i64 %15
  %55 = load float, ptr %54, align 4, !tbaa !130
  %56 = load float, ptr %.063.lcssa.i, align 4, !tbaa !207
  %57 = fmul float %55, %56
  store float %57, ptr %.061.lcssa.i, align 4, !tbaa !130
  br label %_ZN2cvL3DCTIfEEvRKNS_13OcvDftOptionsEPKT_mPS4_S7_S7_mPKNS_7ComplexIS4_EE.exit

_ZN2cvL3DCTIfEEvRKNS_13OcvDftOptionsEPKT_mPS4_S7_S7_mPKNS_7ComplexIS4_EE.exit: ; preds = %20, %._crit_edge78.i
  ret void
}